; Function Attrs: mustprogress nofree norecurse nosync nounwind willreturn memory(write, argmem: readwrite, inaccessiblemem: none) uwtable
define dso_local void @_Z27lua_pushlightuserdatataggedP9lua_StatePvi(ptr noundef captures(none) %0, ptr noundef %1, i32 noundef %2) local_unnamed_addr #10 {
  %4 = getelementptr inbounds nuw i8, ptr %0, i64 8
  %5 = load ptr, ptr %4, align 8, !tbaa !19
  store ptr %1, ptr %5, align 8, !tbaa !21
  %6 = getelementptr inbounds nuw i8, ptr %5, i64 8
  store i32 %2, ptr %6, align 8, !tbaa !22
  %7 = getelementptr inbounds nuw i8, ptr %5, i64 12
  store i32 2, ptr %7, align 4, !tbaa !47
  %8 = load ptr, ptr %4, align 8, !tbaa !19
  %9 = getelementptr inbounds nuw i8, ptr %8, i64 16
  store ptr %9, ptr %4, align 8, !tbaa !19
  ret void
}